; Function Attrs: mustprogress uwtable
define hidden void @_ZN2qe21simplify_rewriter_cfgC2ER11ast_manager(ptr nocapture noundef nonnull writeonly align 8 dereferenceable(8) %this, ptr noundef nonnull align 8 dereferenceable(976) %m) unnamed_addr #3 align 2 {
entry:
  %call = tail call noalias noundef ptr @_ZN6memory8allocateEm(i64 noundef 936)
  store ptr %m, ptr %call, align 8
  %m_ctx.i = getelementptr inbounds i8, ptr %call, i64 8
  tail call void @_ZN2qe23simplify_solver_contextC2ER11ast_manager(ptr noundef nonnull align 8 dereferenceable(928) %m_ctx.i, ptr noundef nonnull align 8 dereferenceable(976) %m)
  store ptr %call, ptr %this, align 8
  ret void
}